target datalayout = "e-m:e-p270:32:32-p271:32:32-p272:64:64-i64:64-i128:128-f80:128-n8:16:32:64-S128"
target triple = "x86_64-pc-linux-gnu"

@OnigEncAsciiCtypeTable = external constant [0 x i16], align 2
@PropertyList = internal global [2 x ptr] [ptr @CR_Hiragana, ptr @CR_Katakana], align 16

; Function Attrs: nounwind uwtable
define internal i32 @code_to_mbclen(i32 noundef %0) #0 {
  %2 = alloca i32, align 4
  %3 = alloca i32, align 4
  store i32 %0, ptr %3, align 4, !tbaa !10
  %4 = load i32, ptr %3, align 4, !tbaa !10
  %5 = icmp ult i32 %4, 256
  br i1 %5, label %6, label %14

6:                                                ; preds = %1
  %7 = load i32, ptr %3, align 4, !tbaa !10
  %8 = sext i32 %7 to i64
  %9 = getelementptr inbounds [256 x i32], ptr @EncLen_SJIS, i64 0, i64 %8
  %10 = load i32, ptr %9, align 4, !tbaa !10
  %11 = icmp eq i32 %10, 1
  br i1 %11, label %12, label %13

12:                                               ; preds = %6
  store i32 1, ptr %2, align 4
  br label %29

13:                                               ; preds = %6
  br label %28

14:                                               ; preds = %1
  %15 = load i32, ptr %3, align 4, !tbaa !10
  %16 = icmp ult i32 %15, 65536
  br i1 %16, label %17, label %27

17:                                               ; preds = %14
  %18 = load i32, ptr %3, align 4, !tbaa !10
  %19 = lshr i32 %18, 8
  %20 = and i32 %19, 255
  %21 = sext i32 %20 to i64
  %22 = getelementptr inbounds [256 x i32], ptr @EncLen_SJIS, i64 0, i64 %21
  %23 = load i32, ptr %22, align 4, !tbaa !10
  %24 = icmp eq i32 %23, 2
  br i1 %24, label %25, label %26

25:                                               ; preds = %17
  store i32 2, ptr %2, align 4
  br label %29

26:                                               ; preds = %17
  br label %27

27:                                               ; preds = %26, %14
  br label %28

28:                                               ; preds = %27, %13
  store i32 -400, ptr %2, align 4
  br label %29

29:                                               ; preds = %28, %25, %12
  %30 = load i32, ptr %2, align 4
  ret i32 %30
}

; Function Attrs: nounwind uwtable
define internal i32 @is_code_ctype(i32 noundef %0, i32 noundef %1) #0 {
  %3 = alloca i32, align 4
  %4 = alloca i32, align 4
  %5 = alloca i32, align 4
  store i32 %0, ptr %4, align 4, !tbaa !10
  store i32 %1, ptr %5, align 4, !tbaa !10
  %6 = load i32, ptr %5, align 4, !tbaa !10
  %7 = icmp ule i32 %6, 14
  br i1 %7, label %8, label %38

8:                                                ; preds = %2
  %9 = load i32, ptr %4, align 4, !tbaa !10
  %10 = icmp ult i32 %9, 128
  br i1 %10, label %11, label %22

11:                                               ; preds = %8
  %12 = load i32, ptr %4, align 4, !tbaa !10
  %13 = zext i32 %12 to i64
  %14 = getelementptr inbounds nuw [0 x i16], ptr @OnigEncAsciiCtypeTable, i64 0, i64 %13
  %15 = load i16, ptr %14, align 2, !tbaa !25
  %16 = zext i16 %15 to i32
  %17 = load i32, ptr %5, align 4, !tbaa !10
  %18 = shl i32 1, %17
  %19 = and i32 %16, %18
  %20 = icmp ne i32 %19, 0
  %21 = zext i1 %20 to i32
  store i32 %21, ptr %3, align 4
  br label %52

22:                                               ; preds = %8
  %23 = load i32, ptr %5, align 4, !tbaa !10
  %24 = icmp eq i32 %23, 12
  br i1 %24, label %31, label %25

25:                                               ; preds = %22
  %26 = load i32, ptr %5, align 4, !tbaa !10
  %27 = icmp eq i32 %26, 5
  br i1 %27, label %31, label %28

28:                                               ; preds = %25
  %29 = load i32, ptr %5, align 4, !tbaa !10
  %30 = icmp eq i32 %29, 7
  br i1 %30, label %31, label %36

31:                                               ; preds = %28, %25, %22
  %32 = load i32, ptr %4, align 4, !tbaa !10
  %33 = call i32 @code_to_mbclen(i32 noundef %32)
  %34 = icmp sgt i32 %33, 1
  %35 = select i1 %34, i32 1, i32 0
  store i32 %35, ptr %3, align 4
  br label %52

36:                                               ; preds = %28
  br label %37

37:                                               ; preds = %36
  br label %51

38:                                               ; preds = %2
  %39 = load i32, ptr %5, align 4, !tbaa !10
  %40 = sub i32 %39, 15
  store i32 %40, ptr %5, align 4, !tbaa !10
  %41 = load i32, ptr %5, align 4, !tbaa !10
  %42 = icmp uge i32 %41, 2
  br i1 %42, label %43, label %44

43:                                               ; preds = %38
  store i32 -6, ptr %3, align 4
  br label %52

44:                                               ; preds = %38
  %45 = load i32, ptr %5, align 4, !tbaa !10
  %46 = zext i32 %45 to i64
  %47 = getelementptr inbounds nuw [2 x ptr], ptr @PropertyList, i64 0, i64 %46
  %48 = load ptr, ptr %47, align 8, !tbaa !27
  %49 = load i32, ptr %4, align 4, !tbaa !10
  %50 = call i32 @onig_is_in_code_range(ptr noundef %48, i32 noundef %49)
  store i32 %50, ptr %3, align 4
  br label %52

51:                                               ; preds = %37
  store i32 0, ptr %3, align 4
  br label %52

52:                                               ; preds = %51, %44, %43, %31, %11
  %53 = load i32, ptr %3, align 4
  ret i32 %53
}