; Function Attrs: nounwind uwtable
define internal i32 @is_code_ctype(i32 noundef %0, i32 noundef %1) #2 {
  %3 = icmp ult i32 %1, 15
  br i1 %3, label %4, label %33

4:                                                ; preds = %2
  %5 = icmp ult i32 %0, 128
  br i1 %5, label %6, label %13

6:                                                ; preds = %4
  %7 = zext nneg i32 %0 to i64
  %8 = getelementptr inbounds nuw [0 x i16], ptr @OnigEncAsciiCtypeTable, i64 0, i64 %7
  %9 = load i16, ptr %8, align 2, !tbaa !19
  %10 = zext i16 %9 to i32
  %11 = lshr i32 %10, %1
  %12 = and i32 %11, 1
  br label %code_to_mbclen.exit

13:                                               ; preds = %4
  %14 = icmp eq i32 %1, 12
  %15 = and i32 %1, 13
  %16 = icmp eq i32 %15, 5
  %or.cond3 = or i1 %14, %16
  br i1 %or.cond3, label %17, label %code_to_mbclen.exit

17:                                               ; preds = %13
  %18 = icmp ult i32 %0, 256
  br i1 %18, label %19, label %24

19:                                               ; preds = %17
  %20 = zext nneg i32 %0 to i64
  %21 = getelementptr inbounds nuw [256 x i32], ptr @EncLen_SJIS, i64 0, i64 %20
  %22 = load i32, ptr %21, align 4, !tbaa !7
  %23 = icmp eq i32 %22, 1
  br i1 %23, label %code_to_mbclen.exit, label %32

24:                                               ; preds = %17
  %25 = icmp ult i32 %0, 65536
  br i1 %25, label %26, label %32

26:                                               ; preds = %24
  %27 = lshr i32 %0, 8
  %28 = zext nneg i32 %27 to i64
  %29 = getelementptr inbounds nuw [256 x i32], ptr @EncLen_SJIS, i64 0, i64 %28
  %30 = load i32, ptr %29, align 4, !tbaa !7
  %31 = icmp eq i32 %30, 2
  br i1 %31, label %code_to_mbclen.exit, label %32

32:                                               ; preds = %26, %24, %19
  br label %code_to_mbclen.exit

33:                                               ; preds = %2
  %34 = add i32 %1, -15
  %35 = icmp ugt i32 %34, 1
  br i1 %35, label %code_to_mbclen.exit, label %36

36:                                               ; preds = %33
  %37 = zext nneg i32 %34 to i64
  %38 = getelementptr inbounds nuw [2 x ptr], ptr @PropertyList, i64 0, i64 %37
  %39 = load ptr, ptr %38, align 8, !tbaa !21
  %40 = tail call i32 @onig_is_in_code_range(ptr noundef %39, i32 noundef %0) #8
  br label %code_to_mbclen.exit

code_to_mbclen.exit:                              ; preds = %32, %26, %19, %13, %33, %36, %6
  %.0 = phi i32 [ %12, %6 ], [ %40, %36 ], [ -6, %33 ], [ 0, %13 ], [ 0, %32 ], [ 0, %19 ], [ 1, %26 ]
  ret i32 %.0
}